; Function Attrs: mustprogress uwtable
define dso_local noundef nonnull ptr @_ZNK16b3GpuNarrowPhase14getContactsCPUEv(ptr noundef nonnull readonly align 8 captures(none) dereferenceable(56) %0) local_unnamed_addr #0 align 2 {
  %2 = getelementptr inbounds nuw i8, ptr %0, i64 8
  %3 = load ptr, ptr %2, align 8, !tbaa !7
  %4 = getelementptr inbounds nuw i8, ptr %3, i64 304
  %5 = getelementptr inbounds nuw i8, ptr %3, i64 320
  %6 = load i32, ptr %5, align 8, !tbaa !426
  %7 = sext i32 %6 to i64
  %8 = getelementptr inbounds [2 x ptr], ptr %4, i64 0, i64 %7
  %9 = load ptr, ptr %8, align 8, !tbaa !115
  %10 = getelementptr inbounds nuw i8, ptr %3, i64 328
  %11 = load ptr, ptr %10, align 8, !tbaa !88
  tail call void @_ZNK13b3OpenCLArrayI10b3Contact4E10copyToHostER20b3AlignedObjectArrayIS0_Eb(ptr noundef nonnull align 8 dereferenceable(50) %9, ptr noundef nonnull align 8 dereferenceable(25) %11, i1 noundef zeroext true)
  %12 = load ptr, ptr %2, align 8, !tbaa !7
  %13 = getelementptr inbounds nuw i8, ptr %12, i64 328
  %14 = load ptr, ptr %13, align 8, !tbaa !88
  %15 = getelementptr inbounds nuw i8, ptr %14, i64 16
  %16 = load ptr, ptr %15, align 8, !tbaa !85
  ret ptr %16
}